; Function Attrs: null_pointer_is_valid sspstrong uwtable
define internal void @dissect_pfcp_pdn_type(ptr noundef %0, ptr noundef %1, ptr noundef %2, ptr noundef %3, i16 noundef zeroext %4, i8 zeroext %5, ptr readnone captures(none) %6) #0 {
  %8 = alloca i32, align 4
  call void @llvm.lifetime.start.p0(i64 4, ptr nonnull %8) #15
  %9 = load i32, ptr @hf_pfcp_pdn_type, align 4
  %10 = call ptr @proto_tree_add_item_ret_uint(ptr noundef %2, i32 noundef %9, ptr noundef %0, i32 noundef 0, i32 noundef 1, i32 noundef 0, ptr noundef nonnull %8)
  %11 = load i32, ptr %8, align 4
  %12 = call ptr @val_to_str_const(i32 noundef %11, ptr noundef nonnull @pfcp_pdn_type_vals, ptr noundef nonnull @.str.2639)
  call void (ptr, ptr, ...) @proto_item_append_text(ptr noundef %3, ptr noundef nonnull @.str.2654, ptr noundef %12)
  %13 = icmp ugt i16 %4, 1
  br i1 %13, label %14, label %16

14:                                               ; preds = %7
  %15 = call ptr @proto_tree_add_expert(ptr noundef %2, ptr noundef %1, ptr noundef nonnull @ei_pfcp_ie_data_not_decoded, ptr noundef %0, i32 noundef 1, i32 noundef -1)
  br label %16

16:                                               ; preds = %14, %7
  call void @llvm.lifetime.end.p0(i64 4, ptr nonnull %8) #15
  ret void
}